target datalayout = "e-m:e-p270:32:32-p271:32:32-p272:64:64-i64:64-i128:128-f80:128-n8:16:32:64-S128"
target triple = "x86_64-unknown-linux-gnu"

%"class.rocksdb::Slice" = type { ptr, i64 }
%"class.rocksdb::(anonymous namespace)::TwoLevelIndexIterator" = type { %"class.rocksdb::InternalIteratorBase", ptr, %"class.rocksdb::IteratorWrapperBase", %"class.rocksdb::IteratorWrapperBase", %"class.rocksdb::Status", %"class.rocksdb::BlockHandle" }
%"class.rocksdb::InternalIteratorBase" = type { ptr, %"class.rocksdb::Cleanable" }
%"class.rocksdb::Cleanable" = type { %"struct.rocksdb::Cleanable::Cleanup" }
%"struct.rocksdb::Cleanable::Cleanup" = type { ptr, ptr, ptr, ptr }
%"class.rocksdb::IteratorWrapperBase" = type <{ ptr, %"struct.rocksdb::IterateResult", i8, [7 x i8] }>
%"struct.rocksdb::IterateResult" = type <{ %"class.rocksdb::Slice", i8, i8, [6 x i8] }>
%"class.rocksdb::Status" = type { i8, i8, i8, i8, i8, i8, %"class.std::unique_ptr" }
%"class.std::unique_ptr" = type { %"struct.std::__uniq_ptr_data" }
%"struct.std::__uniq_ptr_data" = type { %"class.std::__uniq_ptr_impl" }
%"class.std::__uniq_ptr_impl" = type { %"class.std::tuple" }
%"class.std::tuple" = type { %"struct.std::_Tuple_impl" }
%"struct.std::_Tuple_impl" = type { %"struct.std::_Head_base.1" }
%"struct.std::_Head_base.1" = type { ptr }
%"class.rocksdb::BlockHandle" = type { i64, i64 }
%"struct.rocksdb::IndexValue" = type { %"class.rocksdb::BlockHandle", %"class.rocksdb::Slice" }

; Function Attrs: mustprogress uwtable
define linkonce_odr void @_ZNK7rocksdb19IteratorWrapperBaseINS_10IndexValueEE5valueEv(ptr noalias sret(%"struct.rocksdb::IndexValue") align 8 %agg.result, ptr noundef nonnull align 8 dereferenceable(33) %this) #0 comdat align 2 {
entry:
  %this.addr = alloca ptr, align 8
  store ptr %this, ptr %this.addr, align 8
  %this1 = load ptr, ptr %this.addr, align 8
  %iter_ = getelementptr inbounds %"class.rocksdb::IteratorWrapperBase", ptr %this1, i32 0, i32 0
  %0 = load ptr, ptr %iter_, align 8
  %vtable = load ptr, ptr %0, align 8
  %vfn = getelementptr inbounds ptr, ptr %vtable, i64 13
  %1 = load ptr, ptr %vfn, align 8
  call void %1(ptr sret(%"struct.rocksdb::IndexValue") align 8 %agg.result, ptr noundef nonnull align 8 dereferenceable(40) %0)
  ret void
}

; Function Attrs: mustprogress uwtable
define internal void @_ZNK7rocksdb12_GLOBAL__N_121TwoLevelIndexIterator5valueEv(ptr noalias sret(%"struct.rocksdb::IndexValue") align 8 %agg.result, ptr noundef nonnull align 8 dereferenceable(160) %this) unnamed_addr #0 align 2 {
entry:
  %this.addr = alloca ptr, align 8
  store ptr %this, ptr %this.addr, align 8
  %this1 = load ptr, ptr %this.addr, align 8
  %second_level_iter_ = getelementptr inbounds %"class.rocksdb::(anonymous namespace)::TwoLevelIndexIterator", ptr %this1, i32 0, i32 3
  call void @_ZNK7rocksdb19IteratorWrapperBaseINS_10IndexValueEE5valueEv(ptr sret(%"struct.rocksdb::IndexValue") align 8 %agg.result, ptr noundef nonnull align 8 dereferenceable(33) %second_level_iter_)
  ret void
}