; Function Attrs: mustprogress uwtable
define internal void @_ZNK7rocksdb12_GLOBAL__N_121TwoLevelIndexIterator5valueEv(ptr noalias sret(%"struct.rocksdb::IndexValue") align 8 %agg.result, ptr nocapture noundef nonnull readonly align 8 dereferenceable(160) %this) unnamed_addr #0 align 2 {
entry:
  %second_level_iter_ = getelementptr inbounds i8, ptr %this, i64 88
  %0 = load ptr, ptr %second_level_iter_, align 8, !noalias !7
  %vtable.i = load ptr, ptr %0, align 8, !noalias !7
  %vfn.i = getelementptr inbounds i8, ptr %vtable.i, i64 104
  %1 = load ptr, ptr %vfn.i, align 8, !noalias !7
  tail call void %1(ptr sret(%"struct.rocksdb::IndexValue") align 8 %agg.result, ptr noundef nonnull align 8 dereferenceable(40) %0)
  ret void
}